target datalayout = "e-m:e-p270:32:32-p271:32:32-p272:64:64-i64:64-i128:128-f80:128-n8:16:32:64-S128"
target triple = "x86_64-pc-linux-gnu"

%"class.std::__cxx11::basic_string" = type { %"struct.std::__cxx11::basic_string<char>::_Alloc_hider", i64, %union.anon }
%"struct.std::__cxx11::basic_string<char>::_Alloc_hider" = type { ptr }
%union.anon = type { i64, [8 x i8] }
%"struct.igl::tinyply::PlyProperty" = type { %"class.std::__cxx11::basic_string", i8, i8, i8, i64 }
%"struct.std::_Vector_base" = type { %"struct.std::_Vector_base<igl::tinyply::PlyProperty, std::allocator<igl::tinyply::PlyProperty>>::_Vector_impl" }
%"struct.std::_Vector_base<igl::tinyply::PlyProperty, std::allocator<igl::tinyply::PlyProperty>>::_Vector_impl" = type { %"struct.std::_Vector_base<igl::tinyply::PlyProperty, std::allocator<igl::tinyply::PlyProperty>>::_Vector_impl_data" }
%"struct.std::_Vector_base<igl::tinyply::PlyProperty, std::allocator<igl::tinyply::PlyProperty>>::_Vector_impl_data" = type { ptr, ptr, ptr }

; Function Attrs: mustprogress nounwind uwtable
define available_externally noundef ptr @_ZNKSt7__cxx1112basic_stringIcSt11char_traitsIcESaIcEE7_M_dataEv(ptr noundef nonnull align 8 dereferenceable(32) %0) #4 align 2 {
  %2 = alloca ptr, align 8
  store ptr %0, ptr %2, align 8, !tbaa !16
  %3 = load ptr, ptr %2, align 8
  %4 = getelementptr inbounds nuw %"class.std::__cxx11::basic_string", ptr %3, i32 0, i32 0
  %5 = getelementptr inbounds nuw %"struct.std::__cxx11::basic_string<char>::_Alloc_hider", ptr %4, i32 0, i32 0
  %6 = load ptr, ptr %5, align 8, !tbaa !319
  ret ptr %6
}

; Function Attrs: mustprogress nounwind uwtable
define linkonce_odr dso_local noundef i32 @_ZNSt11char_traitsIcE7compareEPKcS2_m(ptr noundef %0, ptr noundef %1, i64 noundef %2) #4 comdat align 2 {
  %4 = alloca i32, align 4
  %5 = alloca ptr, align 8
  %6 = alloca ptr, align 8
  %7 = alloca i64, align 8
  store ptr %0, ptr %5, align 8, !tbaa !18
  store ptr %1, ptr %6, align 8, !tbaa !18
  store i64 %2, ptr %7, align 8, !tbaa !50
  %8 = load i64, ptr %7, align 8, !tbaa !50
  %9 = icmp eq i64 %8, 0
  br i1 %9, label %10, label %11

10:                                               ; preds = %3
  store i32 0, ptr %4, align 4
  br label %16

11:                                               ; preds = %3
  %12 = load ptr, ptr %5, align 8, !tbaa !18
  %13 = load ptr, ptr %6, align 8, !tbaa !18
  %14 = load i64, ptr %7, align 8, !tbaa !50
  %15 = call i32 @memcmp(ptr noundef %12, ptr noundef %13, i64 noundef %14) #6
  store i32 %15, ptr %4, align 4
  br label %16

16:                                               ; preds = %11, %10
  %17 = load i32, ptr %4, align 4
  ret i32 %17
}

; Function Attrs: mustprogress nounwind uwtable
define available_externally noundef ptr @_ZNKSt7__cxx1112basic_stringIcSt11char_traitsIcESaIcEE4dataEv(ptr noundef nonnull align 8 dereferenceable(32) %0) #4 align 2 {
  %2 = alloca ptr, align 8
  store ptr %0, ptr %2, align 8, !tbaa !16
  %3 = load ptr, ptr %2, align 8
  %4 = call noundef ptr @_ZNKSt7__cxx1112basic_stringIcSt11char_traitsIcESaIcEE7_M_dataEv(ptr noundef nonnull align 8 dereferenceable(32) %3)
  ret ptr %4
}

; Function Attrs: mustprogress nounwind uwtable
define available_externally noundef i64 @_ZNKSt7__cxx1112basic_stringIcSt11char_traitsIcESaIcEE4sizeEv(ptr noundef nonnull align 8 dereferenceable(32) %0) #4 align 2 {
  %2 = alloca ptr, align 8
  store ptr %0, ptr %2, align 8, !tbaa !16
  %3 = load ptr, ptr %2, align 8
  %4 = getelementptr inbounds nuw %"class.std::__cxx11::basic_string", ptr %3, i32 0, i32 1
  %5 = load i64, ptr %4, align 8, !tbaa !318
  ret i64 %5
}

; Function Attrs: inlinehint mustprogress nounwind uwtable
define linkonce_odr dso_local noundef zeroext i1 @_ZSteqIcSt11char_traitsIcESaIcEEbRKNSt7__cxx1112basic_stringIT_T0_T1_EESA_(ptr noundef nonnull align 8 dereferenceable(32) %0, ptr noundef nonnull align 8 dereferenceable(32) %1) #5 comdat {
  %3 = alloca ptr, align 8
  %4 = alloca ptr, align 8
  store ptr %0, ptr %3, align 8, !tbaa !16
  store ptr %1, ptr %4, align 8, !tbaa !16
  %5 = load ptr, ptr %3, align 8, !tbaa !16
  %6 = call noundef i64 @_ZNKSt7__cxx1112basic_stringIcSt11char_traitsIcESaIcEE4sizeEv(ptr noundef nonnull align 8 dereferenceable(32) %5) #6
  %7 = load ptr, ptr %4, align 8, !tbaa !16
  %8 = call noundef i64 @_ZNKSt7__cxx1112basic_stringIcSt11char_traitsIcESaIcEE4sizeEv(ptr noundef nonnull align 8 dereferenceable(32) %7) #6
  %9 = icmp eq i64 %6, %8
  br i1 %9, label %10, label %20

10:                                               ; preds = %2
  %11 = load ptr, ptr %3, align 8, !tbaa !16
  %12 = call noundef ptr @_ZNKSt7__cxx1112basic_stringIcSt11char_traitsIcESaIcEE4dataEv(ptr noundef nonnull align 8 dereferenceable(32) %11) #6
  %13 = load ptr, ptr %4, align 8, !tbaa !16
  %14 = call noundef ptr @_ZNKSt7__cxx1112basic_stringIcSt11char_traitsIcESaIcEE4dataEv(ptr noundef nonnull align 8 dereferenceable(32) %13) #6
  %15 = load ptr, ptr %3, align 8, !tbaa !16
  %16 = call noundef i64 @_ZNKSt7__cxx1112basic_stringIcSt11char_traitsIcESaIcEE4sizeEv(ptr noundef nonnull align 8 dereferenceable(32) %15) #6
  %17 = call noundef i32 @_ZNSt11char_traitsIcE7compareEPKcS2_m(ptr noundef %12, ptr noundef %14, i64 noundef %16)
  %18 = icmp ne i32 %17, 0
  %19 = xor i1 %18, true
  br label %20

20:                                               ; preds = %10, %2
  %21 = phi i1 [ false, %2 ], [ %19, %10 ]
  ret i1 %21
}

; Function Attrs: mustprogress nounwind uwtable
define linkonce_odr dso_local noundef nonnull align 8 dereferenceable(48) ptr @_ZNKSt6vectorIN3igl7tinyply11PlyPropertyESaIS2_EEixEm(ptr noundef nonnull align 8 dereferenceable(24) %0, i64 noundef %1) #4 comdat align 2 {
  %3 = alloca ptr, align 8
  %4 = alloca i64, align 8
  store ptr %0, ptr %3, align 8, !tbaa !74
  store i64 %1, ptr %4, align 8, !tbaa !50
  %5 = load ptr, ptr %3, align 8
  %6 = getelementptr inbounds nuw %"struct.std::_Vector_base", ptr %5, i32 0, i32 0
  %7 = getelementptr inbounds nuw %"struct.std::_Vector_base<igl::tinyply::PlyProperty, std::allocator<igl::tinyply::PlyProperty>>::_Vector_impl_data", ptr %6, i32 0, i32 0
  %8 = load ptr, ptr %7, align 8, !tbaa !76
  %9 = load i64, ptr %4, align 8, !tbaa !50
  %10 = getelementptr inbounds nuw %"struct.igl::tinyply::PlyProperty", ptr %8, i64 %9
  ret ptr %10
}

; Function Attrs: mustprogress nounwind uwtable
define linkonce_odr dso_local noundef i64 @_ZNKSt6vectorIN3igl7tinyply11PlyPropertyESaIS2_EE4sizeEv(ptr noundef nonnull align 8 dereferenceable(24) %0) #4 comdat align 2 {
  %2 = alloca ptr, align 8
  store ptr %0, ptr %2, align 8, !tbaa !74
  %3 = load ptr, ptr %2, align 8
  %4 = getelementptr inbounds nuw %"struct.std::_Vector_base", ptr %3, i32 0, i32 0
  %5 = getelementptr inbounds nuw %"struct.std::_Vector_base<igl::tinyply::PlyProperty, std::allocator<igl::tinyply::PlyProperty>>::_Vector_impl_data", ptr %4, i32 0, i32 1
  %6 = load ptr, ptr %5, align 8, !tbaa !77
  %7 = getelementptr inbounds nuw %"struct.std::_Vector_base", ptr %3, i32 0, i32 0
  %8 = getelementptr inbounds nuw %"struct.std::_Vector_base<igl::tinyply::PlyProperty, std::allocator<igl::tinyply::PlyProperty>>::_Vector_impl_data", ptr %7, i32 0, i32 0
  %9 = load ptr, ptr %8, align 8, !tbaa !76
  %10 = ptrtoint ptr %6 to i64
  %11 = ptrtoint ptr %9 to i64
  %12 = sub i64 %10, %11
  %13 = sdiv exact i64 %12, 48
  ret i64 %13
}

; Function Attrs: mustprogress nounwind uwtable
define dso_local noundef i64 @_ZN3igl7tinyply13find_propertyERKNSt7__cxx1112basic_stringIcSt11char_traitsIcESaIcEEERKSt6vectorINS0_11PlyPropertyESaISA_EE(ptr noundef nonnull align 8 dereferenceable(32) %0, ptr noundef nonnull align 8 dereferenceable(24) %1) #4 {
  %3 = alloca i64, align 8
  %4 = alloca ptr, align 8
  %5 = alloca ptr, align 8
  %6 = alloca i64, align 8
  %7 = alloca i32, align 4
  store ptr %0, ptr %4, align 8, !tbaa !16
  store ptr %1, ptr %5, align 8, !tbaa !74
  call void @llvm.lifetime.start.p0(i64 8, ptr %6) #6
  store i64 0, ptr %6, align 8, !tbaa !50
  br label %8

8:                                                ; preds = %24, %2
  %9 = load i64, ptr %6, align 8, !tbaa !50
  %10 = load ptr, ptr %5, align 8, !tbaa !74
  %11 = call noundef i64 @_ZNKSt6vectorIN3igl7tinyply11PlyPropertyESaIS2_EE4sizeEv(ptr noundef nonnull align 8 dereferenceable(24) %10) #6
  %12 = icmp ult i64 %9, %11
  br i1 %12, label %14, label %13

13:                                               ; preds = %8
  store i32 2, ptr %7, align 4
  br label %27

14:                                               ; preds = %8
  %15 = load ptr, ptr %5, align 8, !tbaa !74
  %16 = load i64, ptr %6, align 8, !tbaa !50
  %17 = call noundef nonnull align 8 dereferenceable(48) ptr @_ZNKSt6vectorIN3igl7tinyply11PlyPropertyESaIS2_EEixEm(ptr noundef nonnull align 8 dereferenceable(24) %15, i64 noundef %16) #6
  %18 = getelementptr inbounds nuw %"struct.igl::tinyply::PlyProperty", ptr %17, i32 0, i32 0
  %19 = load ptr, ptr %4, align 8, !tbaa !16
  %20 = call noundef zeroext i1 @_ZSteqIcSt11char_traitsIcESaIcEEbRKNSt7__cxx1112basic_stringIT_T0_T1_EESA_(ptr noundef nonnull align 8 dereferenceable(32) %18, ptr noundef nonnull align 8 dereferenceable(32) %19) #6
  br i1 %20, label %21, label %23

21:                                               ; preds = %14
  %22 = load i64, ptr %6, align 8, !tbaa !50
  store i64 %22, ptr %3, align 8
  store i32 1, ptr %7, align 4
  br label %27

23:                                               ; preds = %14
  br label %24

24:                                               ; preds = %23
  %25 = load i64, ptr %6, align 8, !tbaa !50
  %26 = add i64 %25, 1
  store i64 %26, ptr %6, align 8, !tbaa !50
  br label %8, !llvm.loop !85

27:                                               ; preds = %21, %13
  call void @llvm.lifetime.end.p0(i64 8, ptr %6) #6
  %28 = load i32, ptr %7, align 4
  switch i32 %28, label %32 [
    i32 2, label %29
    i32 1, label %30
  ]

29:                                               ; preds = %27
  store i64 -1, ptr %3, align 8
  br label %30

30:                                               ; preds = %29, %27
  %31 = load i64, ptr %3, align 8
  ret i64 %31

32:                                               ; preds = %27
  unreachable
}